; Function Attrs: nounwind uwtable
define ptr @l_Lean_Json_renderString(ptr noundef %0, ptr noundef %1) local_unnamed_addr #0 {
  %3 = load ptr, ptr @l_Lean_Json_renderString___closed__1, align 8, !tbaa !4
  %4 = tail call ptr @lean_string_append(ptr noundef %1, ptr noundef %3) #3
  %5 = tail call zeroext i8 @l___private_Lean_Data_Json_Printer_0__Lean_Json_needEscape_go(ptr noundef %0, ptr noundef nonnull inttoptr (i64 1 to ptr))
  %6 = icmp eq i8 %5, 0
  br i1 %6, label %7, label %lean_dec.exit.i

7:                                                ; preds = %2
  %8 = tail call ptr @lean_string_append(ptr noundef %4, ptr noundef %0) #3
  br label %l_Lean_Json_escape.exit

lean_dec.exit.i:                                  ; preds = %2
  %9 = getelementptr i8, ptr %0, i64 8
  %.val.i = load i64, ptr %9, align 8, !tbaa !12
  %10 = shl i64 %.val.i, 1
  %11 = add i64 %10, -1
  %12 = inttoptr i64 %11 to ptr
  %13 = tail call ptr @l_String_foldlAux___at_Lean_Json_escape___spec__1(ptr noundef %0, ptr noundef nonnull %12, ptr noundef nonnull inttoptr (i64 1 to ptr), ptr noundef %4)
  br label %l_Lean_Json_escape.exit

l_Lean_Json_escape.exit:                          ; preds = %7, %lean_dec.exit.i
  %.0.i = phi ptr [ %8, %7 ], [ %13, %lean_dec.exit.i ]
  %14 = tail call ptr @lean_string_append(ptr noundef %.0.i, ptr noundef %3) #3
  ret ptr %14
}